(dp1
S'output'
p2
S"<type 'exceptions.IndexError'> list index out of range"
p3
sS'layer'
p4
S'/home/mohit/research/web2py/applications/datatagger/controllers/default.py'
p5
sS'code'
p6
S'# -*- coding: utf-8 -*-\n# this file is released under public domain and you can use without limitations\n\n# -------------------------------------------------------------------------\n# This is a sample controller\n# - index is the default action of any application\n# - user is required for authentication and authorization\n# - download is for downloading files uploaded in the db (does streaming)\n# -------------------------------------------------------------------------\n\n@auth.requires_login()\ndef index():\n    """\n    example action using the internationalization operator T and flash\n    rendered by views/default/index.html or views/generic.html\n\n    if you need a simple wiki simply replace the two lines below with:\n    return auth.wiki()\n    """\n    if request.vars.msg:\n        msg = T(request.vars.msg)\n    else:\n        msg = T("Greetings "+str(auth.user.first_name)+\'!\')\n    response.flash = msg\n    return dict(message=T(\'Welcome to Data Tagger!\'))\n\n@auth.requires_login()\ndef view_annot():\n    if not request.vars.page:\n        page = 1\n    else:\n        page = int(request.vars.page)\n\n    start = (page-1)*10\n    end = page*10\n\n    try:\n        data_id = int(request.vars.data_id)\n    except:\n        redirect(URL(\'default\',\'index\', vars={\'msg\':\'Something went wrong : Please select a Dataset before proceeding\'}))\n\n    annots = db((db.Images.id>0)&(db.Images.id==db.Labels.img_id)&(db.Images.data_id==data_id)).select(db.Images.ALL, db.Labels.ALL, orderby=db.Images.id, limitby=(start, end))\n    output_table = {}\n    for row in annots:\n        if row[\'Images\'][\'id\'] not in output_table:\n            output_table[row[\'Images\'][\'id\']] = {\'img_id\':row[\'Images\'][\'id\'], \'img_path\':row[\'Images\'][\'img_path\'], \'img_name\':row[\'Images\'][\'img_name\'], \'label\':[row[\'Labels\'][\'label\']], \'annotator\':[row[\'Labels\'][\'entry_by\']]}\n        else:\n            output_table[row[\'Images\'][\'id\']][\'label\'].append(row[\'Labels\'][\'label\'])\n            output_table[row[\'Images\'][\'id\']][\'annotator\'].append(row[\'Labels\'][\'entry_by\'])\n\n    return locals()\n\n@auth.requires_login()\ndef select_db():\n    redirect_fl = 0\n    if not request.vars.redirect:\n        redirect(URL(\'default\',\'index\', vars={\'msg\':\'Something went wrong, please try again\'}))\n\n    datasets = db(db.Datasets.id>0).select()\n    redirect_fl = int(request.vars.redirect)\n   \n    return locals() \n\n@auth.requires_login()\ndef annot_image():\n    if not request.vars.page:\n        page = 1\n    else:\n        page = int(request.vars.page)\n    start = (page-1)*10\n    end = page*10\n\n    try:\n        data_id = int(request.vars.data_id)\n    except:\n        redirect(URL(\'default\',\'index\', vars={\'msg\':\'Something went wrong : Please select a Dataset before proceeding\'}))\n\n    img_ids = [i[\'id\'] for i in db((db.Images.id>0)&(db.Images.data_id==data_id)).select(db.Images.id, orderby=db.Images.id, limitby=(start, end))]\n\n    return locals()\n\n@auth.requires_login()\ndef label_to_db():\n    img_id = int(request.vars.current_id)\n    idx = 0\n    for im_id in request.vars.img_id:\n        if im_id==img_id:\n            break\n        idx+=1\n    label = request.vars.label[idx]\n    try:\n        if not db((db.Labels.img_id==img_id)&(db.Labels.entry_by==auth.user_id)).select():\n            db.Labels.insert(label=label, img_id=img_id)\n            return DIV(\'Image Annotation : Success : Label Added\', _class="alert alert-success")\n        else:\n            db((db.Labels.img_id==img_id)&(db.Labels.entry_by==auth.user_id)).update(label=label)\n            return DIV(\'Image Annotation : Success : Label Updated\', _class="alert alert-success")\n    except:\n        return DIV(\'Image Annotation : Failed : Check for errors\', _class="alert alert-danger")\n\n@auth.requires_login()\ndef add_dataset():\n    form = SQLFORM(db.Datasets)\n    if form.process().accepted:\n        data_id = form.vars.id\n        name = form.vars.data_name\n        path = form.vars.data_path\n        refresh_data(data_id, name, path)\n    elif form.errors:\n        session.flash = \'New dataset addition : Failed : Check form for errors\'\n\n    datasets = db(db.Datasets.id>0).select()\n    \n    return locals()\n\n\n@auth.requires_login()\ndef update_db():\n    if not request.vars.data_id:\n        redirect(URL(\'default\',\'index\', vars={\'msg\':\'Dataset updation : Failed : Invalid Dataset-ID\'}))\n    data_id = int(request.vars.data_id)\n\n    refresh_data(data_id)\n\n@auth.requires_login()\ndef refresh_data(data_id, data_name=None, data_path=None):\n    import os\n\n    try:\n        dataset = db(db.Datasets.id==data_id).select()[0]\n        data_name = dataset[\'data_name\']\n        data_path = dataset[\'data_path\']\n    except:\n        if not data_name or not data_path:\n            redirect(URL(\'default\',\'index\', vars={\'msg\':\'Dataset updation : Failed : Check form for errors\'}))\n        \n    image_path = data_path\n    images = []\n    try:\n        images = [im for im in os.listdir(image_path) if im.endswith(\'.jpg\') or im.endswith(\'.png\')]\n    except:\n        db(db.Datasets.id==data_id).delete()\n        db.commit()\n        redirect(URL(\'default\',\'index\', vars={\'msg\':\'Dataset updation : Failed : No such path %s\' % data_path}))\n    \n    ctr = 0\n    db_images = [i[\'img_name\'] for i in db((db.Images.id>0)&(db.Images.data_id==data_id)).select()]\n    for img in images:\n        if img not in db_images:\n            db.Images.insert(img_name=img, img_path=image_path.split(\'static\')[-1], data_id=data_id)\n            ctr += 1\n\n    prev_size = db(db.Datasets.id==data_id).select()[0][\'data_size\']\n    db(db.Datasets.id==data_id).update(data_size=prev_size+ctr)\n    db.commit()\n    redirect(URL(\'default\',\'index\', vars={\'msg\':\'Dataset updation : Success : %s : %s new images\' % (data_name, str(ctr))}))\n\ndef user():\n    """\n    exposes:\n    http://..../[app]/default/user/login\n    http://..../[app]/default/user/logout\n    http://..../[app]/default/user/register\n    http://..../[app]/default/user/profile\n    http://..../[app]/default/user/retrieve_password\n    http://..../[app]/default/user/change_password\n    http://..../[app]/default/user/bulk_register\n    use @auth.requires_login()\n        @auth.requires_membership(\'group name\')\n        @auth.requires_permission(\'read\',\'table name\',record_id)\n    to decorate functions that need access control\n    also notice there is http://..../[app]/appadmin/manage/auth to allow administrator to manage users\n    """\n    return dict(form=auth())\n\n\n@cache.action()\ndef download():\n    """\n    allows downloading of uploaded files\n    http://..../[app]/default/download/[filename]\n    """\n    return response.download(request, db)\n\n\ndef call():\n    """\n    exposes services. for example:\n    http://..../[app]/default/call/jsonrpc\n    decorate with @services.jsonrpc the functions to expose\n    supports xml, json, xmlrpc, jsonrpc, amfrpc, rss, csv\n    """\n    return service()\n\n\n\nresponse._vars=response._caller(label_to_db)\n'
p7
sS'snapshot'
p8
(dp9
sS'traceback'
p10
S'Traceback (most recent call last):\n  File "/home/mohit/research/web2py/gluon/restricted.py", line 227, in restricted\n    exec ccode in environment\n  File "/home/mohit/research/web2py/applications/datatagger/controllers/default.py", line 197, in <module>\n  File "/home/mohit/research/web2py/gluon/globals.py", line 417, in <lambda>\n    self._caller = lambda f: f()\n  File "/home/mohit/research/web2py/gluon/tools.py", line 4241, in f\n    return action(*a, **b)\n  File "/home/mohit/research/web2py/applications/datatagger/controllers/default.py", line 90, in label_to_db\n    label = request.vars.label[idx]\nIndexError: list index out of range\n'
p11
s.